; Function Attrs: nounwind uwtable
define internal range(i32 -1, 1) i32 @evsig_del(ptr noundef captures(none) %0, i32 noundef %1, i16 signext %2, i16 signext %3, ptr readnone captures(none) %4) #0 {
  %6 = load i32, ptr @event_debug_logging_mask_, align 4
  %.not = icmp eq i32 %6, 0
  br i1 %.not, label %8, label %7

7:                                                ; preds = %5
  tail call void (ptr, ...) @event_debugx_(ptr noundef nonnull @.str.13, ptr noundef nonnull @__func__.evsig_del, i32 noundef %1) #8
  br label %8

8:                                                ; preds = %7, %5
  %9 = load ptr, ptr @evsig_base_lock, align 8
  %.not4 = icmp eq ptr %9, null
  br i1 %.not4, label %13, label %10

10:                                               ; preds = %8
  %11 = load ptr, ptr getelementptr inbounds nuw (i8, ptr @evthread_lock_fns_, i64 24), align 8
  %12 = tail call i32 %11(i32 noundef 0, ptr noundef nonnull %9) #8
  %.pre = load ptr, ptr @evsig_base_lock, align 8
  br label %13

13:                                               ; preds = %8, %10
  %14 = phi ptr [ null, %8 ], [ %.pre, %10 ]
  %15 = load i32, ptr @evsig_base_n_signals_added, align 4
  %16 = add nsw i32 %15, -1
  store i32 %16, ptr @evsig_base_n_signals_added, align 4
  %17 = getelementptr inbounds nuw i8, ptr %0, i64 172
  %18 = load i32, ptr %17, align 4
  %19 = add nsw i32 %18, -1
  store i32 %19, ptr %17, align 4
  %.not5 = icmp eq ptr %14, null
  br i1 %.not5, label %23, label %20

20:                                               ; preds = %13
  %21 = load ptr, ptr getelementptr inbounds nuw (i8, ptr @evthread_lock_fns_, i64 32), align 8
  %22 = tail call i32 %21(i32 noundef 0, ptr noundef nonnull %14) #8
  br label %23

23:                                               ; preds = %13, %20
  %24 = getelementptr inbounds nuw i8, ptr %0, i64 704
  %25 = load i32, ptr %24, align 8
  %.not.i = icmp slt i32 %1, %25
  br i1 %.not.i, label %26, label %evsig_restore_handler_.exit

26:                                               ; preds = %23
  %27 = getelementptr inbounds nuw i8, ptr %0, i64 696
  %28 = load ptr, ptr %27, align 8
  %29 = sext i32 %1 to i64
  %30 = getelementptr inbounds ptr, ptr %28, i64 %29
  %31 = load ptr, ptr %30, align 8
  store ptr null, ptr %30, align 8
  %32 = tail call i32 @sigaction(i32 noundef %1, ptr noundef %31, ptr noundef null) #8
  %33 = icmp eq i32 %32, -1
  br i1 %33, label %34, label %35

34:                                               ; preds = %26
  tail call void (ptr, ...) @event_warn(ptr noundef nonnull @.str.4) #8
  br label %35

35:                                               ; preds = %34, %26
  %.011.i = phi i32 [ -1, %34 ], [ 0, %26 ]
  tail call void @event_mm_free_(ptr noundef %31) #8
  br label %evsig_restore_handler_.exit

evsig_restore_handler_.exit:                      ; preds = %23, %35
  %.0.i = phi i32 [ %.011.i, %35 ], [ 0, %23 ]
  ret i32 %.0.i
}